; Function Attrs: mustprogress uwtable
define noundef i32 @_ZNK6casadi21GetNonzerosSliceParam4evalEPPKdPPdPxS4_(ptr nocapture noundef nonnull readonly align 8 dereferenceable(88) %0, ptr nocapture noundef readonly %1, ptr nocapture noundef readonly %2, ptr nocapture readnone %3, ptr nocapture readnone %4) unnamed_addr #3 align 2 {
  %6 = load ptr, ptr %1, align 8
  %7 = getelementptr inbounds i8, ptr %1, i64 8
  %8 = load ptr, ptr %7, align 8
  %9 = load ptr, ptr %2, align 8
  %10 = getelementptr inbounds i8, ptr %0, i64 32
  %11 = getelementptr inbounds i8, ptr %0, i64 40
  %12 = load ptr, ptr %11, align 8
  %13 = load ptr, ptr %10, align 8
  %14 = ptrtoint ptr %12 to i64
  %15 = ptrtoint ptr %13 to i64
  %16 = sub i64 %14, %15
  %17 = ashr exact i64 %16, 3
  %.not.i.i.i = icmp ugt i64 %17, 1
  br i1 %.not.i.i.i, label %_ZNK6casadi6MXNode3depEx.exit, label %18

18:                                               ; preds = %5
  tail call void (ptr, ...) @_ZSt24__throw_out_of_range_fmtPKcz(ptr noundef nonnull @.str.65, i64 noundef 1, i64 noundef %17) #20
  unreachable

_ZNK6casadi6MXNode3depEx.exit:                    ; preds = %5
  %19 = getelementptr inbounds i8, ptr %13, i64 8
  %20 = tail call noundef nonnull align 8 dereferenceable(8) ptr @_ZNK6casadi2MX8sparsityEv(ptr noundef nonnull align 8 dereferenceable(8) %19)
  %21 = tail call noundef i64 @_ZNK6casadi8Sparsity3nnzEv(ptr noundef nonnull align 8 dereferenceable(8) %20)
  %22 = load ptr, ptr %11, align 8
  %23 = load ptr, ptr %10, align 8
  %.not.i.i.i21.not = icmp eq ptr %22, %23
  br i1 %.not.i.i.i21.not, label %24, label %_ZNK6casadi6MXNode3depEx.exit22

24:                                               ; preds = %_ZNK6casadi6MXNode3depEx.exit
  tail call void (ptr, ...) @_ZSt24__throw_out_of_range_fmtPKcz(ptr noundef nonnull @.str.65, i64 noundef 0, i64 noundef 0) #20
  unreachable

_ZNK6casadi6MXNode3depEx.exit22:                  ; preds = %_ZNK6casadi6MXNode3depEx.exit
  %25 = tail call noundef nonnull align 8 dereferenceable(8) ptr @_ZNK6casadi2MX8sparsityEv(ptr noundef nonnull align 8 dereferenceable(8) %23)
  %26 = tail call noundef i64 @_ZNK6casadi8Sparsity3nnzEv(ptr noundef nonnull align 8 dereferenceable(8) %25)
  %27 = icmp sgt i64 %21, 0
  br i1 %27, label %.lr.ph28, label %._crit_edge29

.lr.ph28:                                         ; preds = %_ZNK6casadi6MXNode3depEx.exit22
  %28 = getelementptr inbounds i8, ptr %0, i64 64
  %29 = getelementptr inbounds i8, ptr %0, i64 72
  %30 = getelementptr inbounds i8, ptr %0, i64 80
  %31 = load i64, ptr %28, align 8
  %32 = load i64, ptr %29, align 8
  %33 = icmp slt i64 %31, %32
  br i1 %33, label %.lr.ph28.split, label %._crit_edge29

.lr.ph28.split:                                   ; preds = %.lr.ph28, %._crit_edge
  %34 = phi i64 [ %53, %._crit_edge ], [ %32, %.lr.ph28 ]
  %.027 = phi ptr [ %35, %._crit_edge ], [ %8, %.lr.ph28 ]
  %.01826 = phi ptr [ %.1.lcssa, %._crit_edge ], [ %9, %.lr.ph28 ]
  %.01925 = phi i64 [ %54, %._crit_edge ], [ 0, %.lr.ph28 ]
  %35 = getelementptr inbounds i8, ptr %.027, i64 8
  %36 = load double, ptr %.027, align 8
  %37 = fptosi double %36 to i64
  %38 = load i64, ptr %28, align 8
  %39 = icmp slt i64 %38, %34
  br i1 %39, label %.lr.ph, label %._crit_edge

.lr.ph:                                           ; preds = %.lr.ph28.split, %46
  %.01724 = phi i64 [ %50, %46 ], [ %38, %.lr.ph28.split ]
  %.123 = phi ptr [ %48, %46 ], [ %.01826, %.lr.ph28.split ]
  %40 = add nsw i64 %.01724, %37
  %41 = icmp sgt i64 %40, -1
  %42 = icmp slt i64 %40, %26
  %or.cond = and i1 %41, %42
  br i1 %or.cond, label %43, label %46

43:                                               ; preds = %.lr.ph
  %44 = getelementptr inbounds double, ptr %6, i64 %40
  %45 = load double, ptr %44, align 8
  br label %46

46:                                               ; preds = %.lr.ph, %43
  %47 = phi double [ %45, %43 ], [ 0x7FF8000000000000, %.lr.ph ]
  %48 = getelementptr inbounds i8, ptr %.123, i64 8
  store double %47, ptr %.123, align 8
  %49 = load i64, ptr %30, align 8
  %50 = add nsw i64 %49, %.01724
  %51 = load i64, ptr %29, align 8
  %52 = icmp slt i64 %50, %51
  br i1 %52, label %.lr.ph, label %._crit_edge, !llvm.loop !22

._crit_edge:                                      ; preds = %46, %.lr.ph28.split
  %53 = phi i64 [ %34, %.lr.ph28.split ], [ %51, %46 ]
  %.1.lcssa = phi ptr [ %.01826, %.lr.ph28.split ], [ %48, %46 ]
  %54 = add nuw nsw i64 %.01925, 1
  %exitcond.not = icmp eq i64 %54, %21
  br i1 %exitcond.not, label %._crit_edge29, label %.lr.ph28.split, !llvm.loop !23

._crit_edge29:                                    ; preds = %._crit_edge, %.lr.ph28, %_ZNK6casadi6MXNode3depEx.exit22
  ret i32 0
}